target datalayout = "e-m:e-p270:32:32-p271:32:32-p272:64:64-i64:64-i128:128-f80:128-n8:16:32:64-S128"
target triple = "x86_64-pc-linux-gnu"

%"struct.__cxxabiv1::__dynamic_cast_info" = type { ptr, ptr, ptr, i64, ptr, ptr, i32, i32, i32, i32, i32, i32, i32, i8, i8, i8, i8, ptr }
%"class.std::type_info" = type { ptr, ptr }

; Function Attrs: alwaysinline mustprogress nounwind uwtable
define linkonce_odr hidden noundef ptr @_ZNSt27__type_info_implementations18__string_impl_base21__type_name_to_stringB8ne210000EPKc(ptr noundef %0) #10 comdat align 2 {
  %2 = alloca ptr, align 8
  store ptr %0, ptr %2, align 8, !tbaa !38
  %3 = load ptr, ptr %2, align 8, !tbaa !38
  ret ptr %3
}

; Function Attrs: alwaysinline mustprogress nounwind uwtable
define linkonce_odr hidden noundef zeroext i1 @_ZNSt27__type_info_implementations13__unique_impl4__eqB8ne210000EPKcS2_(ptr noundef %0, ptr noundef %1) #10 comdat align 2 {
  %3 = alloca ptr, align 8
  %4 = alloca ptr, align 8
  store ptr %0, ptr %3, align 8, !tbaa !38
  store ptr %1, ptr %4, align 8, !tbaa !38
  %5 = load ptr, ptr %3, align 8, !tbaa !38
  %6 = load ptr, ptr %4, align 8, !tbaa !38
  %7 = icmp eq ptr %5, %6
  ret i1 %7
}

; Function Attrs: mustprogress nounwind uwtable
define linkonce_odr hidden noundef ptr @_ZNKSt9type_info4nameB8ne210000Ev(ptr noundef nonnull align 8 dereferenceable(16) %0) #1 comdat align 2 {
  %2 = alloca ptr, align 8
  store ptr %0, ptr %2, align 8, !tbaa !31
  %3 = load ptr, ptr %2, align 8
  %4 = getelementptr inbounds nuw %"class.std::type_info", ptr %3, i32 0, i32 1
  %5 = load ptr, ptr %4, align 8, !tbaa !81
  %6 = call noundef ptr @_ZNSt27__type_info_implementations18__string_impl_base21__type_name_to_stringB8ne210000EPKc(ptr noundef %5) #11
  ret ptr %6
}

; Function Attrs: mustprogress nounwind uwtable
define linkonce_odr hidden noundef zeroext i1 @_ZNKSt9type_infoeqB8ne210000ERKS_(ptr noundef nonnull align 8 dereferenceable(16) %0, ptr noundef nonnull align 8 dereferenceable(16) %1) #1 comdat align 2 {
  %3 = alloca ptr, align 8
  %4 = alloca ptr, align 8
  store ptr %0, ptr %3, align 8, !tbaa !31
  store ptr %1, ptr %4, align 8, !tbaa !31
  %5 = load ptr, ptr %3, align 8
  %6 = getelementptr inbounds nuw %"class.std::type_info", ptr %5, i32 0, i32 1
  %7 = load ptr, ptr %6, align 8, !tbaa !81
  %8 = load ptr, ptr %4, align 8, !tbaa !31
  %9 = getelementptr inbounds nuw %"class.std::type_info", ptr %8, i32 0, i32 1
  %10 = load ptr, ptr %9, align 8, !tbaa !81
  %11 = call noundef zeroext i1 @_ZNSt27__type_info_implementations13__unique_impl4__eqB8ne210000EPKcS2_(ptr noundef %7, ptr noundef %10) #11
  ret i1 %11
}

; Function Attrs: mustprogress nounwind uwtable
define hidden void @_ZNK10__cxxabiv117__class_type_info29process_static_type_below_dstEPNS_19__dynamic_cast_infoEPKvi(ptr noundef nonnull align 8 dereferenceable(16) %0, ptr noundef %1, ptr noundef %2, i32 noundef %3) #1 align 2 {
  %5 = alloca ptr, align 8
  %6 = alloca ptr, align 8
  %7 = alloca ptr, align 8
  %8 = alloca i32, align 4
  store ptr %0, ptr %5, align 8, !tbaa !17
  store ptr %1, ptr %6, align 8, !tbaa !68
  store ptr %2, ptr %7, align 8, !tbaa !37
  store i32 %3, ptr %8, align 4, !tbaa !70
  %9 = load ptr, ptr %7, align 8, !tbaa !37
  %10 = load ptr, ptr %6, align 8, !tbaa !68
  %11 = getelementptr inbounds nuw %"struct.__cxxabiv1::__dynamic_cast_info", ptr %10, i32 0, i32 1
  %12 = load ptr, ptr %11, align 8, !tbaa !44
  %13 = icmp eq ptr %9, %12
  br i1 %13, label %14, label %24

14:                                               ; preds = %4
  %15 = load ptr, ptr %6, align 8, !tbaa !68
  %16 = getelementptr inbounds nuw %"struct.__cxxabiv1::__dynamic_cast_info", ptr %15, i32 0, i32 7
  %17 = load i32, ptr %16, align 4, !tbaa !50
  %18 = icmp ne i32 %17, 1
  br i1 %18, label %19, label %23

19:                                               ; preds = %14
  %20 = load i32, ptr %8, align 4, !tbaa !70
  %21 = load ptr, ptr %6, align 8, !tbaa !68
  %22 = getelementptr inbounds nuw %"struct.__cxxabiv1::__dynamic_cast_info", ptr %21, i32 0, i32 7
  store i32 %20, ptr %22, align 4, !tbaa !50
  br label %23

23:                                               ; preds = %19, %14
  br label %24

24:                                               ; preds = %23, %4
  ret void
}

; Function Attrs: inlinehint mustprogress nounwind uwtable
define internal noundef zeroext i1 @_ZL8is_equalPKSt9type_infoS1_b(ptr noundef %0, ptr noundef %1, i1 noundef zeroext %2) #5 {
  %4 = alloca i1, align 1
  %5 = alloca ptr, align 8
  %6 = alloca ptr, align 8
  %7 = alloca i8, align 1
  store ptr %0, ptr %5, align 8, !tbaa !31
  store ptr %1, ptr %6, align 8, !tbaa !31
  %8 = zext i1 %2 to i8
  store i8 %8, ptr %7, align 1, !tbaa !33
  %9 = load i8, ptr %7, align 1, !tbaa !33, !range !35, !noundef !36
  %10 = trunc i8 %9 to i1
  br i1 %10, label %15, label %11

11:                                               ; preds = %3
  %12 = load ptr, ptr %5, align 8, !tbaa !31
  %13 = load ptr, ptr %6, align 8, !tbaa !31
  %14 = call noundef zeroext i1 @_ZNKSt9type_infoeqB8ne210000ERKS_(ptr noundef nonnull align 8 dereferenceable(16) %12, ptr noundef nonnull align 8 dereferenceable(16) %13) #11
  store i1 %14, ptr %4, align 1
  br label %28

15:                                               ; preds = %3
  %16 = load ptr, ptr %5, align 8, !tbaa !31
  %17 = load ptr, ptr %6, align 8, !tbaa !31
  %18 = icmp eq ptr %16, %17
  br i1 %18, label %26, label %19

19:                                               ; preds = %15
  %20 = load ptr, ptr %5, align 8, !tbaa !31
  %21 = call noundef ptr @_ZNKSt9type_info4nameB8ne210000Ev(ptr noundef nonnull align 8 dereferenceable(16) %20) #11
  %22 = load ptr, ptr %6, align 8, !tbaa !31
  %23 = call noundef ptr @_ZNKSt9type_info4nameB8ne210000Ev(ptr noundef nonnull align 8 dereferenceable(16) %22) #11
  %24 = call i32 @strcmp(ptr noundef %21, ptr noundef %23) #14
  %25 = icmp eq i32 %24, 0
  br label %26

26:                                               ; preds = %19, %15
  %27 = phi i1 [ true, %15 ], [ %25, %19 ]
  store i1 %27, ptr %4, align 1
  br label %28

28:                                               ; preds = %26, %11
  %29 = load i1, ptr %4, align 1
  ret i1 %29
}

; Function Attrs: mustprogress uwtable
define hidden void @_ZNK10__cxxabiv117__class_type_info16search_below_dstEPNS_19__dynamic_cast_infoEPKvib(ptr noundef nonnull align 8 dereferenceable(16) %0, ptr noundef %1, ptr noundef %2, i32 noundef %3, i1 noundef zeroext %4) unnamed_addr #4 align 2 {
  %6 = alloca ptr, align 8
  %7 = alloca ptr, align 8
  %8 = alloca ptr, align 8
  %9 = alloca i32, align 4
  %10 = alloca i8, align 1
  store ptr %0, ptr %6, align 8, !tbaa !17
  store ptr %1, ptr %7, align 8, !tbaa !68
  store ptr %2, ptr %8, align 8, !tbaa !37
  store i32 %3, ptr %9, align 4, !tbaa !70
  %11 = zext i1 %4 to i8
  store i8 %11, ptr %10, align 1, !tbaa !33
  %12 = load ptr, ptr %6, align 8
  %13 = load ptr, ptr %7, align 8, !tbaa !68
  %14 = getelementptr inbounds nuw %"struct.__cxxabiv1::__dynamic_cast_info", ptr %13, i32 0, i32 2
  %15 = load ptr, ptr %14, align 8, !tbaa !45
  %16 = load i8, ptr %10, align 1, !tbaa !33, !range !35, !noundef !36
  %17 = trunc i8 %16 to i1
  %18 = call noundef zeroext i1 @_ZL8is_equalPKSt9type_infoS1_b(ptr noundef %12, ptr noundef %15, i1 noundef zeroext %17)
  br i1 %18, label %19, label %23

19:                                               ; preds = %5
  %20 = load ptr, ptr %7, align 8, !tbaa !68
  %21 = load ptr, ptr %8, align 8, !tbaa !37
  %22 = load i32, ptr %9, align 4, !tbaa !70
  call void @_ZNK10__cxxabiv117__class_type_info29process_static_type_below_dstEPNS_19__dynamic_cast_infoEPKvi(ptr noundef nonnull align 8 dereferenceable(16) %12, ptr noundef %20, ptr noundef %21, i32 noundef %22)
  br label %77

23:                                               ; preds = %5
  %24 = load ptr, ptr %7, align 8, !tbaa !68
  %25 = getelementptr inbounds nuw %"struct.__cxxabiv1::__dynamic_cast_info", ptr %24, i32 0, i32 0
  %26 = load ptr, ptr %25, align 8, !tbaa !40
  %27 = load i8, ptr %10, align 1, !tbaa !33, !range !35, !noundef !36
  %28 = trunc i8 %27 to i1
  %29 = call noundef zeroext i1 @_ZL8is_equalPKSt9type_infoS1_b(ptr noundef %12, ptr noundef %26, i1 noundef zeroext %28)
  br i1 %29, label %30, label %76

30:                                               ; preds = %23
  %31 = load ptr, ptr %8, align 8, !tbaa !37
  %32 = load ptr, ptr %7, align 8, !tbaa !68
  %33 = getelementptr inbounds nuw %"struct.__cxxabiv1::__dynamic_cast_info", ptr %32, i32 0, i32 4
  %34 = load ptr, ptr %33, align 8, !tbaa !47
  %35 = icmp eq ptr %31, %34
  br i1 %35, label %42, label %36

36:                                               ; preds = %30
  %37 = load ptr, ptr %8, align 8, !tbaa !37
  %38 = load ptr, ptr %7, align 8, !tbaa !68
  %39 = getelementptr inbounds nuw %"struct.__cxxabiv1::__dynamic_cast_info", ptr %38, i32 0, i32 5
  %40 = load ptr, ptr %39, align 8, !tbaa !48
  %41 = icmp eq ptr %37, %40
  br i1 %41, label %42, label %49

42:                                               ; preds = %36, %30
  %43 = load i32, ptr %9, align 4, !tbaa !70
  %44 = icmp eq i32 %43, 1
  br i1 %44, label %45, label %48

45:                                               ; preds = %42
  %46 = load ptr, ptr %7, align 8, !tbaa !68
  %47 = getelementptr inbounds nuw %"struct.__cxxabiv1::__dynamic_cast_info", ptr %46, i32 0, i32 8
  store i32 1, ptr %47, align 8, !tbaa !51
  br label %48

48:                                               ; preds = %45, %42
  br label %75

49:                                               ; preds = %36
  %50 = load i32, ptr %9, align 4, !tbaa !70
  %51 = load ptr, ptr %7, align 8, !tbaa !68
  %52 = getelementptr inbounds nuw %"struct.__cxxabiv1::__dynamic_cast_info", ptr %51, i32 0, i32 8
  store i32 %50, ptr %52, align 8, !tbaa !51
  %53 = load ptr, ptr %8, align 8, !tbaa !37
  %54 = load ptr, ptr %7, align 8, !tbaa !68
  %55 = getelementptr inbounds nuw %"struct.__cxxabiv1::__dynamic_cast_info", ptr %54, i32 0, i32 5
  store ptr %53, ptr %55, align 8, !tbaa !48
  %56 = load ptr, ptr %7, align 8, !tbaa !68
  %57 = getelementptr inbounds nuw %"struct.__cxxabiv1::__dynamic_cast_info", ptr %56, i32 0, i32 10
  %58 = load i32, ptr %57, align 8, !tbaa !53
  %59 = add nsw i32 %58, 1
  store i32 %59, ptr %57, align 8, !tbaa !53
  %60 = load ptr, ptr %7, align 8, !tbaa !68
  %61 = getelementptr inbounds nuw %"struct.__cxxabiv1::__dynamic_cast_info", ptr %60, i32 0, i32 9
  %62 = load i32, ptr %61, align 4, !tbaa !52
  %63 = icmp eq i32 %62, 1
  br i1 %63, label %64, label %72

64:                                               ; preds = %49
  %65 = load ptr, ptr %7, align 8, !tbaa !68
  %66 = getelementptr inbounds nuw %"struct.__cxxabiv1::__dynamic_cast_info", ptr %65, i32 0, i32 6
  %67 = load i32, ptr %66, align 8, !tbaa !49
  %68 = icmp eq i32 %67, 2
  br i1 %68, label %69, label %72

69:                                               ; preds = %64
  %70 = load ptr, ptr %7, align 8, !tbaa !68
  %71 = getelementptr inbounds nuw %"struct.__cxxabiv1::__dynamic_cast_info", ptr %70, i32 0, i32 15
  store i8 1, ptr %71, align 2, !tbaa !58
  br label %72

72:                                               ; preds = %69, %64, %49
  %73 = load ptr, ptr %7, align 8, !tbaa !68
  %74 = getelementptr inbounds nuw %"struct.__cxxabiv1::__dynamic_cast_info", ptr %73, i32 0, i32 11
  store i32 4, ptr %74, align 4, !tbaa !54
  br label %75

75:                                               ; preds = %72, %48
  br label %76

76:                                               ; preds = %75, %23
  br label %77

77:                                               ; preds = %76, %19
  ret void
}