; Function Attrs: mustprogress nofree norecurse nounwind willreturn memory(read, argmem: readwrite, inaccessiblemem: none) uwtable
define hidden void @_ZNK10__cxxabiv117__class_type_info16search_below_dstEPNS_19__dynamic_cast_infoEPKvib(ptr noundef nonnull readonly align 8 captures(address) dereferenceable(16) %0, ptr noundef captures(none) %1, ptr noundef %2, i32 noundef %3, i1 noundef zeroext %4) unnamed_addr #15 align 2 {
  %6 = getelementptr inbounds nuw i8, ptr %1, i64 16
  %7 = load ptr, ptr %6, align 8, !tbaa !18
  br i1 %4, label %14, label %8

8:                                                ; preds = %5
  %9 = getelementptr inbounds nuw i8, ptr %0, i64 8
  %10 = load ptr, ptr %9, align 8, !tbaa !4
  %11 = getelementptr inbounds nuw i8, ptr %7, i64 8
  %12 = load ptr, ptr %11, align 8, !tbaa !4
  %13 = icmp eq ptr %10, %12
  br i1 %13, label %_ZL8is_equalPKSt9type_infoS1_b.exit.thread, label %29

14:                                               ; preds = %5
  %15 = icmp eq ptr %0, %7
  br i1 %15, label %_ZL8is_equalPKSt9type_infoS1_b.exit.thread, label %_ZL8is_equalPKSt9type_infoS1_b.exit

_ZL8is_equalPKSt9type_infoS1_b.exit:              ; preds = %14
  %16 = getelementptr inbounds nuw i8, ptr %0, i64 8
  %17 = load ptr, ptr %16, align 8, !tbaa !4
  %18 = getelementptr inbounds nuw i8, ptr %7, i64 8
  %19 = load ptr, ptr %18, align 8, !tbaa !4
  %20 = tail call i32 @strcmp(ptr noundef nonnull dereferenceable(1) %17, ptr noundef nonnull dereferenceable(1) %19) #22
  %21 = icmp eq i32 %20, 0
  br i1 %21, label %_ZL8is_equalPKSt9type_infoS1_b.exit.thread, label %34

_ZL8is_equalPKSt9type_infoS1_b.exit.thread:       ; preds = %14, %8, %_ZL8is_equalPKSt9type_infoS1_b.exit
  %22 = getelementptr inbounds nuw i8, ptr %1, i64 8
  %23 = load ptr, ptr %22, align 8, !tbaa !17
  %24 = icmp eq ptr %2, %23
  br i1 %24, label %25, label %_ZNK10__cxxabiv117__class_type_info29process_static_type_below_dstEPNS_19__dynamic_cast_infoEPKvi.exit

25:                                               ; preds = %_ZL8is_equalPKSt9type_infoS1_b.exit.thread
  %26 = getelementptr inbounds nuw i8, ptr %1, i64 52
  %27 = load i32, ptr %26, align 4, !tbaa !56
  %.not.i = icmp eq i32 %27, 1
  br i1 %.not.i, label %_ZNK10__cxxabiv117__class_type_info29process_static_type_below_dstEPNS_19__dynamic_cast_infoEPKvi.exit, label %28

28:                                               ; preds = %25
  store i32 %3, ptr %26, align 4, !tbaa !56
  br label %_ZNK10__cxxabiv117__class_type_info29process_static_type_below_dstEPNS_19__dynamic_cast_infoEPKvi.exit

29:                                               ; preds = %8
  %30 = load ptr, ptr %1, align 8, !tbaa !11
  %31 = getelementptr inbounds nuw i8, ptr %30, i64 8
  %32 = load ptr, ptr %31, align 8, !tbaa !4
  %33 = icmp eq ptr %10, %32
  br i1 %33, label %_ZL8is_equalPKSt9type_infoS1_b.exit23.thread, label %_ZNK10__cxxabiv117__class_type_info29process_static_type_below_dstEPNS_19__dynamic_cast_infoEPKvi.exit

34:                                               ; preds = %_ZL8is_equalPKSt9type_infoS1_b.exit
  %35 = load ptr, ptr %1, align 8, !tbaa !11
  %36 = icmp eq ptr %0, %35
  br i1 %36, label %_ZL8is_equalPKSt9type_infoS1_b.exit23.thread, label %_ZL8is_equalPKSt9type_infoS1_b.exit23

_ZL8is_equalPKSt9type_infoS1_b.exit23:            ; preds = %34
  %37 = getelementptr inbounds nuw i8, ptr %35, i64 8
  %38 = load ptr, ptr %37, align 8, !tbaa !4
  %39 = tail call i32 @strcmp(ptr noundef nonnull dereferenceable(1) %17, ptr noundef nonnull dereferenceable(1) %38) #22
  %40 = icmp eq i32 %39, 0
  br i1 %40, label %_ZL8is_equalPKSt9type_infoS1_b.exit23.thread, label %_ZNK10__cxxabiv117__class_type_info29process_static_type_below_dstEPNS_19__dynamic_cast_infoEPKvi.exit

_ZL8is_equalPKSt9type_infoS1_b.exit23.thread:     ; preds = %34, %29, %_ZL8is_equalPKSt9type_infoS1_b.exit23
  %41 = getelementptr inbounds nuw i8, ptr %1, i64 32
  %42 = load ptr, ptr %41, align 8, !tbaa !26
  %43 = icmp eq ptr %2, %42
  br i1 %43, label %48, label %44

44:                                               ; preds = %_ZL8is_equalPKSt9type_infoS1_b.exit23.thread
  %45 = getelementptr inbounds nuw i8, ptr %1, i64 40
  %46 = load ptr, ptr %45, align 8, !tbaa !34
  %47 = icmp eq ptr %2, %46
  br i1 %47, label %48, label %52

48:                                               ; preds = %44, %_ZL8is_equalPKSt9type_infoS1_b.exit23.thread
  %49 = icmp eq i32 %3, 1
  br i1 %49, label %50, label %_ZNK10__cxxabiv117__class_type_info29process_static_type_below_dstEPNS_19__dynamic_cast_infoEPKvi.exit

50:                                               ; preds = %48
  %51 = getelementptr inbounds nuw i8, ptr %1, i64 56
  store i32 1, ptr %51, align 8, !tbaa !57
  br label %_ZNK10__cxxabiv117__class_type_info29process_static_type_below_dstEPNS_19__dynamic_cast_infoEPKvi.exit

52:                                               ; preds = %44
  %53 = getelementptr inbounds nuw i8, ptr %1, i64 56
  store i32 %3, ptr %53, align 8, !tbaa !57
  store ptr %2, ptr %45, align 8, !tbaa !34
  %54 = getelementptr inbounds nuw i8, ptr %1, i64 64
  %55 = load i32, ptr %54, align 8, !tbaa !33
  %56 = add nsw i32 %55, 1
  store i32 %56, ptr %54, align 8, !tbaa !33
  %57 = getelementptr inbounds nuw i8, ptr %1, i64 60
  %58 = load i32, ptr %57, align 4, !tbaa !32
  %59 = icmp eq i32 %58, 1
  br i1 %59, label %60, label %66

60:                                               ; preds = %52
  %61 = getelementptr inbounds nuw i8, ptr %1, i64 48
  %62 = load i32, ptr %61, align 8, !tbaa !25
  %63 = icmp eq i32 %62, 2
  br i1 %63, label %64, label %66

64:                                               ; preds = %60
  %65 = getelementptr inbounds nuw i8, ptr %1, i64 78
  store i8 1, ptr %65, align 2, !tbaa !31
  br label %66

66:                                               ; preds = %64, %60, %52
  %67 = getelementptr inbounds nuw i8, ptr %1, i64 68
  store i32 4, ptr %67, align 4, !tbaa !58
  br label %_ZNK10__cxxabiv117__class_type_info29process_static_type_below_dstEPNS_19__dynamic_cast_infoEPKvi.exit

_ZNK10__cxxabiv117__class_type_info29process_static_type_below_dstEPNS_19__dynamic_cast_infoEPKvi.exit: ; preds = %29, %28, %25, %_ZL8is_equalPKSt9type_infoS1_b.exit.thread, %_ZL8is_equalPKSt9type_infoS1_b.exit23, %48, %50, %66
  ret void
}